(dp0
I1
(lp1
(dp2
S'date'
p3
S'2018-05-20'
p4
sS'person'
p5
V\u4fe1\u606f\u529e
p6
sa(dp7
S'date'
p8
S'2018-05-20'
p9
sS'person'
p10
V\u4fe1\u606f\u529e
p11
saNasI2
(lp12
(dp13
S'date'
p14
S'2018-05-18'
p15
sS'person'
p16
V\u8d22\u52a1\u5904
p17
saNaNasI5
(lp18
(dp19
S'date'
p20
S'2018-05-20'
p21
sS'person'
p22
V\u4e8c\u4e2b
p23
sa(dp24
S'date'
p25
S'2018-05-20'
p26
sS'person'
p27
V\u4e8c\u4e2b
p28
sa(dp29
S'date'
p30
S'2018-05-20'
p31
sS'person'
p32
V\u4e8c\u4e2b
p33
sas.