(dp0
I1
(lp1
(dp2
S'status'
p3
S'\xe5\xb7\xb2\xe9\x80\x9a\xe8\xbf\x87'
p4
sS'name'
p5
V\u4eba\u8138\u8bc6\u522b\u7cfb\u7edf
p6
sS'process'
p7
V\u9700\u6c42\u8c03\u7814
p8
sS'money'
p9
V3000
p10
sS'where'
p11
V\u9700\u6c42\u8c03\u7814
p12
sS'auditor'
p13
V\u4fe1\u606f\u529e
p14
sS'time'
p15
V2018-03-10
p16
sS'consumer'
p17
V\u6492\u8d1d\u5b81
p18
sa(dp19
S'status'
p20
S'\xe5\xb7\xb2\xe9\x80\x9a\xe8\xbf\x87'
p21
sS'name'
p22
V\u4eba\u8138\u8bc6\u522b\u7cfb\u7edf
p23
sS'process'
p24
V\u524d\u671f
p25
sS'money'
p26
V5000
p27
sS'consumer'
p28
V\u767d\u656c\u4ead
p29
sS'auditor'
p30
V\u4fe1\u606f\u529e
p31
sS'time'
p32
V2018-04-01
p33
sS'where'
p34
V\u5668\u6750\u8d2d\u4e70
p35
sa(dp36
S'status'
p37
S'\xe5\xb7\xb2\xe9\x80\x9a\xe8\xbf\x87'
p38
sS'name'
p39
V\u4eba\u8138\u8bc6\u522b\u7cfb\u7edf
p40
sS'process'
p41
V\u524d\u671f
p42
sS'money'
p43
V5000
p44
sS'where'
p45
V\u6750\u6599\u8d2d\u4e70
p46
sS'auditor'
p47
V\u4fe1\u606f\u529e
p48
sS'time'
p49
V2018-04-11
p50
sS'consumer'
p51
V\u6492\u8d1d\u5b81
p52
sa(dp53
S'status'
p54
S'\xe5\xb7\xb2\xe9\x80\x9a\xe8\xbf\x87'
p55
sS'name'
p56
V\u4eba\u8138\u8bc6\u522b\u7cfb\u7edf
p57
sS'process'
p58
V\u7acb\u9879
p59
sS'money'
p60
V2000
p61
sS'consumer'
p62
V\u9b4f\u5927\u52cb
p63
sS'auditor'
p64
V\u4fe1\u606f\u529e
p65
sS'time'
p66
V2018-03-28
p67
sS'where'
p68
V\u4f01\u5212\u4e66\u7b56\u5212
p69
sa(dp70
S'status'
p71
S'\xe5\xb7\xb2\xe9\x80\x9a\xe8\xbf\x87'
p72
sS'name'
p73
V\u4eba\u8138\u8bc6\u522b\u7cfb\u7edf
p74
sS'process'
p75
V\u524d\u671f
p76
sS'money'
p77
V10000
p78
sS'where'
p79
V\u5668\u6750\u8d2d\u4e70
p80
sS'auditor'
p81
V\u4fe1\u606f\u529e
p82
sS'time'
p83
V2018-04-20
p84
sS'consumer'
p85
V\u6492\u8d1d\u5b81
p86
sa(dp87
S'status'
p88
S'\xe5\xb7\xb2\xe9\x80\x9a\xe8\xbf\x87'
p89
sS'name'
p90
V\u4eba\u8138\u8bc6\u522b\u7cfb\u7edf
p91
sS'process'
p92
V\u4e2d\u671f
p93
sS'money'
p94
V5000
p95
sS'consumer'
p96
V\u767d\u656c\u4ead
p97
sS'auditor'
p98
V\u4fe1\u606f\u529e
p99
sS'time'
p100
V2018-05-05
p101
sS'where'
p102
V\u521d\u6b65\u5b9e\u65bd
p103
sa(dp104
S'status'
p105
S'\xe5\xae\xa1\xe6\xa0\xb8\xe4\xb8\xad'
p106
sS'name'
p107
V\u4eba\u8138\u8bc6\u522b\u7cfb\u7edf
p108
sS'time'
p109
V2018-04-26
p110
sS'process'
p111
V\u524d\u671f
p112
sS'money'
p113
V10000
p114
sS'where'
p115
V\u8fd0\u8425\u8d44\u91d1
p116
sS'consumer'
p117
V\u9b4f\u5927\u52cb
p118
sS'auditor'
p119
S''
p120
sasI5
(lp121
(dp122
S'status'
p123
S'\xe5\xb7\xb2\xe9\x80\x9a\xe8\xbf\x87'
p124
sS'name'
p125
V\u6eda\u7403\u63a7\u5236\u7cfb\u7edf
p126
sS'process'
p127
V\u9700\u6c42\u8c03\u7814
p128
sS'money'
p129
V10
p130
sS'where'
p131
V\u5403\u5de7\u514b\u529b
p132
sS'auditor'
p133
V\u4fe1\u606f\u529e
p134
sS'time'
p135
V2018-05-20
p136
sS'consumer'
p137
Vliyingying
p138
sas.